target datalayout = "e-m:e-p270:32:32-p271:32:32-p272:64:64-i64:64-i128:128-f80:128-n8:16:32:64-S128"
target triple = "x86_64-pc-linux-gnu"

%struct.X11InputMethodIDs = type { ptr }
%union.jvalue = type { i64 }
%struct._X11InputMethodData = type { ptr, ptr, ptr, ptr, ptr, ptr, ptr, i32 }
%struct.JNINativeInterface_ = type { ptr, ptr, ptr, ptr, ptr, ptr, ptr, ptr, ptr, ptr, ptr, ptr, ptr, ptr, ptr, ptr, ptr, ptr, ptr, ptr, ptr, ptr, ptr, ptr, ptr, ptr, ptr, ptr, ptr, ptr, ptr, ptr, ptr, ptr, ptr, ptr, ptr, ptr, ptr, ptr, ptr, ptr, ptr, ptr, ptr, ptr, ptr, ptr, ptr, ptr, ptr, ptr, ptr, ptr, ptr, ptr, ptr, ptr, ptr, ptr, ptr, ptr, ptr, ptr, ptr, ptr, ptr, ptr, ptr, ptr, ptr, ptr, ptr, ptr, ptr, ptr, ptr, ptr, ptr, ptr, ptr, ptr, ptr, ptr, ptr, ptr, ptr, ptr, ptr, ptr, ptr, ptr, ptr, ptr, ptr, ptr, ptr, ptr, ptr, ptr, ptr, ptr, ptr, ptr, ptr, ptr, ptr, ptr, ptr, ptr, ptr, ptr, ptr, ptr, ptr, ptr, ptr, ptr, ptr, ptr, ptr, ptr, ptr, ptr, ptr, ptr, ptr, ptr, ptr, ptr, ptr, ptr, ptr, ptr, ptr, ptr, ptr, ptr, ptr, ptr, ptr, ptr, ptr, ptr, ptr, ptr, ptr, ptr, ptr, ptr, ptr, ptr, ptr, ptr, ptr, ptr, ptr, ptr, ptr, ptr, ptr, ptr, ptr, ptr, ptr, ptr, ptr, ptr, ptr, ptr, ptr, ptr, ptr, ptr, ptr, ptr, ptr, ptr, ptr, ptr, ptr, ptr, ptr, ptr, ptr, ptr, ptr, ptr, ptr, ptr, ptr, ptr, ptr, ptr, ptr, ptr, ptr, ptr, ptr, ptr, ptr, ptr, ptr, ptr, ptr, ptr, ptr, ptr, ptr, ptr, ptr, ptr, ptr, ptr, ptr, ptr, ptr, ptr, ptr, ptr, ptr, ptr, ptr, ptr, ptr, ptr, ptr, ptr, ptr, ptr, ptr, ptr, ptr, ptr, ptr }

@currentX11InputMethodInstance = hidden global ptr null, align 8
@currentFocusWindow = hidden global i64 0, align 8
@tkClass = external global ptr, align 8
@awtLockMID = external global ptr, align 8
@awtUnlockMID = external global ptr, align 8
@x11InputMethodIDs = hidden global %struct.X11InputMethodIDs zeroinitializer, align 8
@X11im = internal global ptr null, align 8
@.str.11 = private unnamed_addr constant [10 x i8] c"flushText\00", align 1
@.str.12 = private unnamed_addr constant [4 x i8] c"()V\00", align 1

; Function Attrs: nounwind uwtable
define internal void @destroyX11InputMethodData(ptr noundef %0, ptr noundef %1) #0 {
  %3 = alloca ptr, align 8
  %4 = alloca ptr, align 8
  store ptr %0, ptr %3, align 8
  store ptr %1, ptr %4, align 8
  %5 = load ptr, ptr %4, align 8
  %6 = icmp eq ptr %5, null
  br i1 %6, label %7, label %8

7:                                                ; preds = %2
  br label %48

8:                                                ; preds = %2
  %9 = load ptr, ptr %4, align 8
  %10 = getelementptr inbounds %struct._X11InputMethodData, ptr %9, i32 0, i32 1
  %11 = load ptr, ptr %10, align 8
  %12 = icmp ne ptr %11, null
  br i1 %12, label %13, label %45

13:                                               ; preds = %8
  %14 = load ptr, ptr %4, align 8
  %15 = getelementptr inbounds %struct._X11InputMethodData, ptr %14, i32 0, i32 1
  %16 = load ptr, ptr %15, align 8
  call void @XUnsetICFocus(ptr noundef %16)
  %17 = load ptr, ptr %4, align 8
  %18 = getelementptr inbounds %struct._X11InputMethodData, ptr %17, i32 0, i32 1
  %19 = load ptr, ptr %18, align 8
  call void @XDestroyIC(ptr noundef %19)
  %20 = load ptr, ptr %4, align 8
  %21 = getelementptr inbounds %struct._X11InputMethodData, ptr %20, i32 0, i32 1
  %22 = load ptr, ptr %21, align 8
  %23 = load ptr, ptr %4, align 8
  %24 = getelementptr inbounds %struct._X11InputMethodData, ptr %23, i32 0, i32 2
  %25 = load ptr, ptr %24, align 8
  %26 = icmp ne ptr %22, %25
  br i1 %26, label %27, label %44

27:                                               ; preds = %13
  %28 = load ptr, ptr %4, align 8
  %29 = getelementptr inbounds %struct._X11InputMethodData, ptr %28, i32 0, i32 2
  %30 = load ptr, ptr %29, align 8
  %31 = icmp ne ptr %30, null
  br i1 %31, label %32, label %39

32:                                               ; preds = %27
  %33 = load ptr, ptr %4, align 8
  %34 = getelementptr inbounds %struct._X11InputMethodData, ptr %33, i32 0, i32 2
  %35 = load ptr, ptr %34, align 8
  call void @XUnsetICFocus(ptr noundef %35)
  %36 = load ptr, ptr %4, align 8
  %37 = getelementptr inbounds %struct._X11InputMethodData, ptr %36, i32 0, i32 2
  %38 = load ptr, ptr %37, align 8
  call void @XDestroyIC(ptr noundef %38)
  br label %39

39:                                               ; preds = %32, %27
  %40 = load ptr, ptr %4, align 8
  %41 = getelementptr inbounds %struct._X11InputMethodData, ptr %40, i32 0, i32 2
  store ptr null, ptr %41, align 8
  %42 = load ptr, ptr %4, align 8
  %43 = getelementptr inbounds %struct._X11InputMethodData, ptr %42, i32 0, i32 0
  store ptr null, ptr %43, align 8
  br label %44

44:                                               ; preds = %39, %13
  br label %45

45:                                               ; preds = %44, %8
  %46 = load ptr, ptr %3, align 8
  %47 = load ptr, ptr %4, align 8
  call void @freeX11InputMethodData(ptr noundef %46, ptr noundef %47)
  br label %48

48:                                               ; preds = %45, %7
  ret void
}

; Function Attrs: nounwind uwtable
define internal void @setX11InputMethodData(ptr noundef %0, ptr noundef %1, ptr noundef %2) #0 {
  %4 = alloca ptr, align 8
  %5 = alloca ptr, align 8
  %6 = alloca ptr, align 8
  store ptr %0, ptr %4, align 8
  store ptr %1, ptr %5, align 8
  store ptr %2, ptr %6, align 8
  %7 = load ptr, ptr %4, align 8
  %8 = load ptr, ptr %7, align 8
  %9 = getelementptr inbounds %struct.JNINativeInterface_, ptr %8, i32 0, i32 110
  %10 = load ptr, ptr %9, align 8
  %11 = load ptr, ptr %4, align 8
  %12 = load ptr, ptr %5, align 8
  %13 = load ptr, ptr @x11InputMethodIDs, align 8
  %14 = load ptr, ptr %6, align 8
  %15 = ptrtoint ptr %14 to i64
  call void %10(ptr noundef %11, ptr noundef %12, ptr noundef %13, i64 noundef %15)
  ret void
}

; Function Attrs: nounwind uwtable
define internal ptr @getX11InputMethodData(ptr noundef %0, ptr noundef %1) #0 {
  %3 = alloca ptr, align 8
  %4 = alloca ptr, align 8
  %5 = alloca ptr, align 8
  %6 = alloca ptr, align 8
  %7 = alloca %union.jvalue, align 8
  store ptr %0, ptr %4, align 8
  store ptr %1, ptr %5, align 8
  %8 = load ptr, ptr %4, align 8
  %9 = load ptr, ptr %8, align 8
  %10 = getelementptr inbounds %struct.JNINativeInterface_, ptr %9, i32 0, i32 101
  %11 = load ptr, ptr %10, align 8
  %12 = load ptr, ptr %4, align 8
  %13 = load ptr, ptr %5, align 8
  %14 = load ptr, ptr @x11InputMethodIDs, align 8
  %15 = call i64 %11(ptr noundef %12, ptr noundef %13, ptr noundef %14)
  %16 = inttoptr i64 %15 to ptr
  store ptr %16, ptr %6, align 8
  %17 = load ptr, ptr @X11im, align 8
  %18 = icmp eq ptr %17, null
  br i1 %18, label %19, label %44

19:                                               ; preds = %2
  %20 = load ptr, ptr %6, align 8
  %21 = icmp ne ptr %20, null
  br i1 %21, label %22, label %44

22:                                               ; preds = %19
  %23 = load ptr, ptr %4, align 8
  %24 = load ptr, ptr %6, align 8
  %25 = getelementptr inbounds %struct._X11InputMethodData, ptr %24, i32 0, i32 4
  %26 = load ptr, ptr %25, align 8
  %27 = call i64 (ptr, ptr, ptr, ptr, ptr, ...) @JNU_CallMethodByName(ptr noundef %23, ptr noundef null, ptr noundef %26, ptr noundef @.str.11, ptr noundef @.str.12)
  %28 = getelementptr inbounds %union.jvalue, ptr %7, i32 0, i32 0
  store i64 %27, ptr %28, align 8
  br label %29

29:                                               ; preds = %22
  %30 = load ptr, ptr %4, align 8
  %31 = load ptr, ptr %30, align 8
  %32 = getelementptr inbounds %struct.JNINativeInterface_, ptr %31, i32 0, i32 228
  %33 = load ptr, ptr %32, align 8
  %34 = load ptr, ptr %4, align 8
  %35 = call zeroext i8 %33(ptr noundef %34)
  %36 = icmp ne i8 %35, 0
  br i1 %36, label %37, label %38

37:                                               ; preds = %29
  store ptr null, ptr %3, align 8
  br label %46

38:                                               ; preds = %29
  br label %39

39:                                               ; preds = %38
  %40 = load ptr, ptr %4, align 8
  %41 = load ptr, ptr %5, align 8
  call void @setX11InputMethodData(ptr noundef %40, ptr noundef %41, ptr noundef null)
  %42 = load ptr, ptr %4, align 8
  %43 = load ptr, ptr %6, align 8
  call void @freeX11InputMethodData(ptr noundef %42, ptr noundef %43)
  store ptr null, ptr %6, align 8
  br label %44

44:                                               ; preds = %39, %19, %2
  %45 = load ptr, ptr %6, align 8
  store ptr %45, ptr %3, align 8
  br label %46

46:                                               ; preds = %44, %37
  %47 = load ptr, ptr %3, align 8
  ret ptr %47
}

; Function Attrs: nounwind uwtable
define void @Java_sun_awt_X11InputMethodBase_disposeXIC(ptr noundef %0, ptr noundef %1) #0 {
  %3 = alloca ptr, align 8
  %4 = alloca ptr, align 8
  %5 = alloca ptr, align 8
  %6 = alloca ptr, align 8
  %7 = alloca ptr, align 8
  store ptr %0, ptr %3, align 8
  store ptr %1, ptr %4, align 8
  store ptr null, ptr %5, align 8
  br label %8

8:                                                ; preds = %2
  %9 = load ptr, ptr %3, align 8
  %10 = load ptr, ptr %9, align 8
  %11 = getelementptr inbounds %struct.JNINativeInterface_, ptr %10, i32 0, i32 228
  %12 = load ptr, ptr %11, align 8
  %13 = load ptr, ptr %3, align 8
  %14 = call zeroext i8 %12(ptr noundef %13)
  %15 = icmp ne i8 %14, 0
  br i1 %15, label %16, label %22

16:                                               ; preds = %8
  %17 = load ptr, ptr %3, align 8
  %18 = load ptr, ptr %17, align 8
  %19 = getelementptr inbounds %struct.JNINativeInterface_, ptr %18, i32 0, i32 17
  %20 = load ptr, ptr %19, align 8
  %21 = load ptr, ptr %3, align 8
  call void %20(ptr noundef %21)
  br label %22

22:                                               ; preds = %16, %8
  %23 = load ptr, ptr %3, align 8
  %24 = load ptr, ptr %23, align 8
  %25 = getelementptr inbounds %struct.JNINativeInterface_, ptr %24, i32 0, i32 141
  %26 = load ptr, ptr %25, align 8
  %27 = load ptr, ptr %3, align 8
  %28 = load ptr, ptr @tkClass, align 8
  %29 = load ptr, ptr @awtLockMID, align 8
  call void (ptr, ptr, ptr, ...) %26(ptr noundef %27, ptr noundef %28, ptr noundef %29)
  %30 = load ptr, ptr %3, align 8
  %31 = load ptr, ptr %30, align 8
  %32 = getelementptr inbounds %struct.JNINativeInterface_, ptr %31, i32 0, i32 228
  %33 = load ptr, ptr %32, align 8
  %34 = load ptr, ptr %3, align 8
  %35 = call zeroext i8 %33(ptr noundef %34)
  %36 = icmp ne i8 %35, 0
  br i1 %36, label %37, label %43

37:                                               ; preds = %22
  %38 = load ptr, ptr %3, align 8
  %39 = load ptr, ptr %38, align 8
  %40 = getelementptr inbounds %struct.JNINativeInterface_, ptr %39, i32 0, i32 17
  %41 = load ptr, ptr %40, align 8
  %42 = load ptr, ptr %3, align 8
  call void %41(ptr noundef %42)
  br label %43

43:                                               ; preds = %37, %22
  br label %44

44:                                               ; preds = %43
  %45 = load ptr, ptr %3, align 8
  %46 = load ptr, ptr %4, align 8
  %47 = call ptr @getX11InputMethodData(ptr noundef %45, ptr noundef %46)
  store ptr %47, ptr %5, align 8
  %48 = load ptr, ptr %5, align 8
  %49 = icmp eq ptr %48, null
  br i1 %49, label %50, label %101

50:                                               ; preds = %44
  br label %51

51:                                               ; preds = %50
  call void (...) @awt_output_flush()
  br label %52

52:                                               ; preds = %51
  %53 = load ptr, ptr %3, align 8
  %54 = load ptr, ptr %53, align 8
  %55 = getelementptr inbounds %struct.JNINativeInterface_, ptr %54, i32 0, i32 15
  %56 = load ptr, ptr %55, align 8
  %57 = load ptr, ptr %3, align 8
  %58 = call ptr %56(ptr noundef %57)
  store ptr %58, ptr %6, align 8
  %59 = icmp ne ptr %58, null
  br i1 %59, label %60, label %66

60:                                               ; preds = %52
  %61 = load ptr, ptr %3, align 8
  %62 = load ptr, ptr %61, align 8
  %63 = getelementptr inbounds %struct.JNINativeInterface_, ptr %62, i32 0, i32 17
  %64 = load ptr, ptr %63, align 8
  %65 = load ptr, ptr %3, align 8
  call void %64(ptr noundef %65)
  br label %66

66:                                               ; preds = %60, %52
  %67 = load ptr, ptr %3, align 8
  %68 = load ptr, ptr %67, align 8
  %69 = getelementptr inbounds %struct.JNINativeInterface_, ptr %68, i32 0, i32 141
  %70 = load ptr, ptr %69, align 8
  %71 = load ptr, ptr %3, align 8
  %72 = load ptr, ptr @tkClass, align 8
  %73 = load ptr, ptr @awtUnlockMID, align 8
  call void (ptr, ptr, ptr, ...) %70(ptr noundef %71, ptr noundef %72, ptr noundef %73)
  %74 = load ptr, ptr %3, align 8
  %75 = load ptr, ptr %74, align 8
  %76 = getelementptr inbounds %struct.JNINativeInterface_, ptr %75, i32 0, i32 228
  %77 = load ptr, ptr %76, align 8
  %78 = load ptr, ptr %3, align 8
  %79 = call zeroext i8 %77(ptr noundef %78)
  %80 = icmp ne i8 %79, 0
  br i1 %80, label %81, label %87

81:                                               ; preds = %66
  %82 = load ptr, ptr %3, align 8
  %83 = load ptr, ptr %82, align 8
  %84 = getelementptr inbounds %struct.JNINativeInterface_, ptr %83, i32 0, i32 17
  %85 = load ptr, ptr %84, align 8
  %86 = load ptr, ptr %3, align 8
  call void %85(ptr noundef %86)
  br label %87

87:                                               ; preds = %81, %66
  %88 = load ptr, ptr %6, align 8
  %89 = icmp ne ptr %88, null
  br i1 %89, label %90, label %98

90:                                               ; preds = %87
  %91 = load ptr, ptr %3, align 8
  %92 = load ptr, ptr %91, align 8
  %93 = getelementptr inbounds %struct.JNINativeInterface_, ptr %92, i32 0, i32 13
  %94 = load ptr, ptr %93, align 8
  %95 = load ptr, ptr %3, align 8
  %96 = load ptr, ptr %6, align 8
  %97 = call i32 %94(ptr noundef %95, ptr noundef %96)
  br label %98

98:                                               ; preds = %90, %87
  br label %99

99:                                               ; preds = %98
  br label %100

100:                                              ; preds = %99
  br label %162

101:                                              ; preds = %44
  %102 = load ptr, ptr %3, align 8
  %103 = load ptr, ptr %4, align 8
  call void @setX11InputMethodData(ptr noundef %102, ptr noundef %103, ptr noundef null)
  %104 = load ptr, ptr %5, align 8
  %105 = getelementptr inbounds %struct._X11InputMethodData, ptr %104, i32 0, i32 4
  %106 = load ptr, ptr %105, align 8
  %107 = load ptr, ptr @currentX11InputMethodInstance, align 8
  %108 = icmp eq ptr %106, %107
  br i1 %108, label %109, label %110

109:                                              ; preds = %101
  store ptr null, ptr @currentX11InputMethodInstance, align 8
  store i64 0, ptr @currentFocusWindow, align 8
  br label %110

110:                                              ; preds = %109, %101
  %111 = load ptr, ptr %3, align 8
  %112 = load ptr, ptr %5, align 8
  call void @destroyX11InputMethodData(ptr noundef %111, ptr noundef %112)
  br label %113

113:                                              ; preds = %110
  call void (...) @awt_output_flush()
  br label %114

114:                                              ; preds = %113
  %115 = load ptr, ptr %3, align 8
  %116 = load ptr, ptr %115, align 8
  %117 = getelementptr inbounds %struct.JNINativeInterface_, ptr %116, i32 0, i32 15
  %118 = load ptr, ptr %117, align 8
  %119 = load ptr, ptr %3, align 8
  %120 = call ptr %118(ptr noundef %119)
  store ptr %120, ptr %7, align 8
  %121 = icmp ne ptr %120, null
  br i1 %121, label %122, label %128

122:                                              ; preds = %114
  %123 = load ptr, ptr %3, align 8
  %124 = load ptr, ptr %123, align 8
  %125 = getelementptr inbounds %struct.JNINativeInterface_, ptr %124, i32 0, i32 17
  %126 = load ptr, ptr %125, align 8
  %127 = load ptr, ptr %3, align 8
  call void %126(ptr noundef %127)
  br label %128

128:                                              ; preds = %122, %114
  %129 = load ptr, ptr %3, align 8
  %130 = load ptr, ptr %129, align 8
  %131 = getelementptr inbounds %struct.JNINativeInterface_, ptr %130, i32 0, i32 141
  %132 = load ptr, ptr %131, align 8
  %133 = load ptr, ptr %3, align 8
  %134 = load ptr, ptr @tkClass, align 8
  %135 = load ptr, ptr @awtUnlockMID, align 8
  call void (ptr, ptr, ptr, ...) %132(ptr noundef %133, ptr noundef %134, ptr noundef %135)
  %136 = load ptr, ptr %3, align 8
  %137 = load ptr, ptr %136, align 8
  %138 = getelementptr inbounds %struct.JNINativeInterface_, ptr %137, i32 0, i32 228
  %139 = load ptr, ptr %138, align 8
  %140 = load ptr, ptr %3, align 8
  %141 = call zeroext i8 %139(ptr noundef %140)
  %142 = icmp ne i8 %141, 0
  br i1 %142, label %143, label %149

143:                                              ; preds = %128
  %144 = load ptr, ptr %3, align 8
  %145 = load ptr, ptr %144, align 8
  %146 = getelementptr inbounds %struct.JNINativeInterface_, ptr %145, i32 0, i32 17
  %147 = load ptr, ptr %146, align 8
  %148 = load ptr, ptr %3, align 8
  call void %147(ptr noundef %148)
  br label %149

149:                                              ; preds = %143, %128
  %150 = load ptr, ptr %7, align 8
  %151 = icmp ne ptr %150, null
  br i1 %151, label %152, label %160

152:                                              ; preds = %149
  %153 = load ptr, ptr %3, align 8
  %154 = load ptr, ptr %153, align 8
  %155 = getelementptr inbounds %struct.JNINativeInterface_, ptr %154, i32 0, i32 13
  %156 = load ptr, ptr %155, align 8
  %157 = load ptr, ptr %3, align 8
  %158 = load ptr, ptr %7, align 8
  %159 = call i32 %156(ptr noundef %157, ptr noundef %158)
  br label %160

160:                                              ; preds = %152, %149
  br label %161

161:                                              ; preds = %160
  br label %162

162:                                              ; preds = %161, %100
  ret void
}