; Function Attrs: nounwind uwtable
define void @Java_sun_awt_X11InputMethodBase_disposeXIC(ptr noundef %0, ptr noundef %1) local_unnamed_addr #2 {
  %3 = load ptr, ptr %0, align 8
  %4 = getelementptr inbounds i8, ptr %3, i64 1824
  %5 = load ptr, ptr %4, align 8
  %6 = tail call zeroext i8 %5(ptr noundef nonnull %0) #14
  %.not = icmp eq i8 %6, 0
  br i1 %.not, label %11, label %7

7:                                                ; preds = %2
  %8 = load ptr, ptr %0, align 8
  %9 = getelementptr inbounds i8, ptr %8, i64 136
  %10 = load ptr, ptr %9, align 8
  tail call void %10(ptr noundef nonnull %0) #14
  br label %11

11:                                               ; preds = %7, %2
  %12 = load ptr, ptr %0, align 8
  %13 = getelementptr inbounds i8, ptr %12, i64 1128
  %14 = load ptr, ptr %13, align 8
  %15 = load ptr, ptr @tkClass, align 8
  %16 = load ptr, ptr @awtLockMID, align 8
  tail call void (ptr, ptr, ptr, ...) %14(ptr noundef nonnull %0, ptr noundef %15, ptr noundef %16) #14
  %17 = load ptr, ptr %0, align 8
  %18 = getelementptr inbounds i8, ptr %17, i64 1824
  %19 = load ptr, ptr %18, align 8
  %20 = tail call zeroext i8 %19(ptr noundef nonnull %0) #14
  %.not48 = icmp eq i8 %20, 0
  br i1 %.not48, label %25, label %21

21:                                               ; preds = %11
  %22 = load ptr, ptr %0, align 8
  %23 = getelementptr inbounds i8, ptr %22, i64 136
  %24 = load ptr, ptr %23, align 8
  tail call void %24(ptr noundef nonnull %0) #14
  br label %25

25:                                               ; preds = %11, %21
  %26 = load ptr, ptr %0, align 8
  %27 = getelementptr inbounds i8, ptr %26, i64 808
  %28 = load ptr, ptr %27, align 8
  %29 = load ptr, ptr @x11InputMethodIDs, align 8
  %30 = tail call i64 %28(ptr noundef nonnull %0, ptr noundef %1, ptr noundef %29) #14
  %31 = inttoptr i64 %30 to ptr
  %32 = load ptr, ptr @X11im, align 8
  %33 = icmp eq ptr %32, null
  %34 = icmp ne i64 %30, 0
  %or.cond.i = select i1 %33, i1 %34, i1 false
  br i1 %or.cond.i, label %35, label %getX11InputMethodData.exit

35:                                               ; preds = %25
  %36 = getelementptr inbounds i8, ptr %31, i64 32
  %37 = load ptr, ptr %36, align 8
  %38 = tail call i64 (ptr, ptr, ptr, ptr, ptr, ...) @JNU_CallMethodByName(ptr noundef nonnull %0, ptr noundef null, ptr noundef %37, ptr noundef nonnull @.str.11, ptr noundef nonnull @.str.12) #14
  %39 = load ptr, ptr %0, align 8
  %40 = getelementptr inbounds i8, ptr %39, i64 1824
  %41 = load ptr, ptr %40, align 8
  %42 = tail call zeroext i8 %41(ptr noundef nonnull %0) #14
  %.not.i = icmp eq i8 %42, 0
  br i1 %.not.i, label %43, label %getX11InputMethodData.exit.thread

43:                                               ; preds = %35
  %44 = load ptr, ptr %0, align 8
  %45 = getelementptr inbounds i8, ptr %44, i64 880
  %46 = load ptr, ptr %45, align 8
  %47 = load ptr, ptr @x11InputMethodIDs, align 8
  tail call void %46(ptr noundef nonnull %0, ptr noundef %1, ptr noundef %47, i64 noundef 0) #14
  tail call fastcc void @freeX11InputMethodData(ptr noundef nonnull %0, ptr noundef nonnull %31)
  br label %getX11InputMethodData.exit.thread

getX11InputMethodData.exit:                       ; preds = %25
  %48 = icmp eq i64 %30, 0
  br i1 %48, label %getX11InputMethodData.exit.thread, label %72

getX11InputMethodData.exit.thread:                ; preds = %43, %35, %getX11InputMethodData.exit
  tail call void (...) @awt_output_flush() #14
  %49 = load ptr, ptr %0, align 8
  %50 = getelementptr inbounds i8, ptr %49, i64 120
  %51 = load ptr, ptr %50, align 8
  %52 = tail call ptr %51(ptr noundef nonnull %0) #14
  %.not51 = icmp eq ptr %52, null
  br i1 %.not51, label %57, label %53

53:                                               ; preds = %getX11InputMethodData.exit.thread
  %54 = load ptr, ptr %0, align 8
  %55 = getelementptr inbounds i8, ptr %54, i64 136
  %56 = load ptr, ptr %55, align 8
  tail call void %56(ptr noundef nonnull %0) #14
  br label %57

57:                                               ; preds = %53, %getX11InputMethodData.exit.thread
  %58 = load ptr, ptr %0, align 8
  %59 = getelementptr inbounds i8, ptr %58, i64 1128
  %60 = load ptr, ptr %59, align 8
  %61 = load ptr, ptr @tkClass, align 8
  %62 = load ptr, ptr @awtUnlockMID, align 8
  tail call void (ptr, ptr, ptr, ...) %60(ptr noundef nonnull %0, ptr noundef %61, ptr noundef %62) #14
  %63 = load ptr, ptr %0, align 8
  %64 = getelementptr inbounds i8, ptr %63, i64 1824
  %65 = load ptr, ptr %64, align 8
  %66 = tail call zeroext i8 %65(ptr noundef nonnull %0) #14
  %.not52 = icmp eq i8 %66, 0
  br i1 %.not52, label %71, label %67

67:                                               ; preds = %57
  %68 = load ptr, ptr %0, align 8
  %69 = getelementptr inbounds i8, ptr %68, i64 136
  %70 = load ptr, ptr %69, align 8
  tail call void %70(ptr noundef nonnull %0) #14
  br label %71

71:                                               ; preds = %67, %57
  br i1 %.not51, label %121, label %.sink.split

72:                                               ; preds = %getX11InputMethodData.exit
  %73 = load ptr, ptr %0, align 8
  %74 = getelementptr inbounds i8, ptr %73, i64 880
  %75 = load ptr, ptr %74, align 8
  %76 = load ptr, ptr @x11InputMethodIDs, align 8
  tail call void %75(ptr noundef nonnull %0, ptr noundef %1, ptr noundef %76, i64 noundef 0) #14
  %77 = getelementptr inbounds i8, ptr %31, i64 32
  %78 = load ptr, ptr %77, align 8
  %79 = load ptr, ptr @currentX11InputMethodInstance, align 8
  %80 = icmp eq ptr %78, %79
  br i1 %80, label %81, label %82

81:                                               ; preds = %72
  store ptr null, ptr @currentX11InputMethodInstance, align 8
  store i64 0, ptr @currentFocusWindow, align 8
  br label %82

82:                                               ; preds = %81, %72
  %83 = getelementptr inbounds i8, ptr %31, i64 8
  %84 = load ptr, ptr %83, align 8
  %.not.i53 = icmp eq ptr %84, null
  br i1 %.not.i53, label %destroyX11InputMethodData.exit, label %85

85:                                               ; preds = %82
  tail call void @XUnsetICFocus(ptr noundef nonnull %84) #14
  %86 = load ptr, ptr %83, align 8
  tail call void @XDestroyIC(ptr noundef %86) #14
  %87 = load ptr, ptr %83, align 8
  %88 = getelementptr inbounds i8, ptr %31, i64 16
  %89 = load ptr, ptr %88, align 8
  %.not15.i = icmp eq ptr %87, %89
  br i1 %.not15.i, label %destroyX11InputMethodData.exit, label %90

90:                                               ; preds = %85
  %.not16.i = icmp eq ptr %89, null
  br i1 %.not16.i, label %93, label %91

91:                                               ; preds = %90
  tail call void @XUnsetICFocus(ptr noundef nonnull %89) #14
  %92 = load ptr, ptr %88, align 8
  tail call void @XDestroyIC(ptr noundef %92) #14
  br label %93

93:                                               ; preds = %91, %90
  store ptr null, ptr %88, align 8
  store ptr null, ptr %31, align 8
  br label %destroyX11InputMethodData.exit

destroyX11InputMethodData.exit:                   ; preds = %82, %85, %93
  tail call fastcc void @freeX11InputMethodData(ptr noundef nonnull %0, ptr noundef nonnull %31)
  tail call void (...) @awt_output_flush() #14
  %94 = load ptr, ptr %0, align 8
  %95 = getelementptr inbounds i8, ptr %94, i64 120
  %96 = load ptr, ptr %95, align 8
  %97 = tail call ptr %96(ptr noundef nonnull %0) #14
  %.not49 = icmp eq ptr %97, null
  br i1 %.not49, label %102, label %98

98:                                               ; preds = %destroyX11InputMethodData.exit
  %99 = load ptr, ptr %0, align 8
  %100 = getelementptr inbounds i8, ptr %99, i64 136
  %101 = load ptr, ptr %100, align 8
  tail call void %101(ptr noundef nonnull %0) #14
  br label %102

102:                                              ; preds = %98, %destroyX11InputMethodData.exit
  %103 = load ptr, ptr %0, align 8
  %104 = getelementptr inbounds i8, ptr %103, i64 1128
  %105 = load ptr, ptr %104, align 8
  %106 = load ptr, ptr @tkClass, align 8
  %107 = load ptr, ptr @awtUnlockMID, align 8
  tail call void (ptr, ptr, ptr, ...) %105(ptr noundef nonnull %0, ptr noundef %106, ptr noundef %107) #14
  %108 = load ptr, ptr %0, align 8
  %109 = getelementptr inbounds i8, ptr %108, i64 1824
  %110 = load ptr, ptr %109, align 8
  %111 = tail call zeroext i8 %110(ptr noundef nonnull %0) #14
  %.not50 = icmp eq i8 %111, 0
  br i1 %.not50, label %116, label %112

112:                                              ; preds = %102
  %113 = load ptr, ptr %0, align 8
  %114 = getelementptr inbounds i8, ptr %113, i64 136
  %115 = load ptr, ptr %114, align 8
  tail call void %115(ptr noundef nonnull %0) #14
  br label %116

116:                                              ; preds = %112, %102
  br i1 %.not49, label %121, label %.sink.split

.sink.split:                                      ; preds = %116, %71
  %.sink = phi ptr [ %52, %71 ], [ %97, %116 ]
  %117 = load ptr, ptr %0, align 8
  %118 = getelementptr inbounds i8, ptr %117, i64 104
  %119 = load ptr, ptr %118, align 8
  %120 = tail call i32 %119(ptr noundef nonnull %0, ptr noundef nonnull %.sink) #14
  br label %121

121:                                              ; preds = %.sink.split, %116, %71
  ret void
}